target datalayout = "e-m:e-p270:32:32-p271:32:32-p272:64:64-i64:64-i128:128-f80:128-n8:16:32:64-S128"
target triple = "x86_64-pc-linux-gnu"

@SysCache = internal global [85 x ptr] zeroinitializer, align 16

; Function Attrs: nounwind uwtable
define dso_local void @ReleaseSysCache(ptr noundef %0) #0 {
  %2 = alloca ptr, align 8
  store ptr %0, ptr %2, align 8
  %3 = load ptr, ptr %2, align 8
  call void @ReleaseCatCache(ptr noundef %3)
  ret void
}

; Function Attrs: nounwind uwtable
define dso_local ptr @SearchSysCache(i32 noundef %0, i64 noundef %1, i64 noundef %2, i64 noundef %3, i64 noundef %4) #0 {
  %6 = alloca i32, align 4
  %7 = alloca i64, align 8
  %8 = alloca i64, align 8
  %9 = alloca i64, align 8
  %10 = alloca i64, align 8
  store i32 %0, ptr %6, align 4
  store i64 %1, ptr %7, align 8
  store i64 %2, ptr %8, align 8
  store i64 %3, ptr %9, align 8
  store i64 %4, ptr %10, align 8
  %11 = load i32, ptr %6, align 4
  %12 = sext i32 %11 to i64
  %13 = getelementptr inbounds [85 x ptr], ptr @SysCache, i64 0, i64 %12
  %14 = load ptr, ptr %13, align 8
  %15 = load i64, ptr %7, align 8
  %16 = load i64, ptr %8, align 8
  %17 = load i64, ptr %9, align 8
  %18 = load i64, ptr %10, align 8
  %19 = call ptr @SearchCatCache(ptr noundef %14, i64 noundef %15, i64 noundef %16, i64 noundef %17, i64 noundef %18)
  ret ptr %19
}

; Function Attrs: nounwind uwtable
define dso_local zeroext i1 @SearchSysCacheExists(i32 noundef %0, i64 noundef %1, i64 noundef %2, i64 noundef %3, i64 noundef %4) #0 {
  %6 = alloca i1, align 1
  %7 = alloca i32, align 4
  %8 = alloca i64, align 8
  %9 = alloca i64, align 8
  %10 = alloca i64, align 8
  %11 = alloca i64, align 8
  %12 = alloca ptr, align 8
  %13 = alloca i32, align 4
  store i32 %0, ptr %7, align 4
  store i64 %1, ptr %8, align 8
  store i64 %2, ptr %9, align 8
  store i64 %3, ptr %10, align 8
  store i64 %4, ptr %11, align 8
  call void @llvm.lifetime.start.p0(i64 8, ptr %12) #6
  %14 = load i32, ptr %7, align 4
  %15 = load i64, ptr %8, align 8
  %16 = load i64, ptr %9, align 8
  %17 = load i64, ptr %10, align 8
  %18 = load i64, ptr %11, align 8
  %19 = call ptr @SearchSysCache(i32 noundef %14, i64 noundef %15, i64 noundef %16, i64 noundef %17, i64 noundef %18)
  store ptr %19, ptr %12, align 8
  %20 = load ptr, ptr %12, align 8
  %21 = icmp ne ptr %20, null
  br i1 %21, label %23, label %22

22:                                               ; preds = %5
  store i1 false, ptr %6, align 1
  store i32 1, ptr %13, align 4
  br label %25

23:                                               ; preds = %5
  %24 = load ptr, ptr %12, align 8
  call void @ReleaseSysCache(ptr noundef %24)
  store i1 true, ptr %6, align 1
  store i32 1, ptr %13, align 4
  br label %25

25:                                               ; preds = %23, %22
  call void @llvm.lifetime.end.p0(i64 8, ptr %12) #6
  %26 = load i1, ptr %6, align 1
  ret i1 %26
}