; Function Attrs: nounwind uwtable
define dso_local noundef zeroext i1 @SearchSysCacheExists(i32 noundef %0, i64 noundef %1, i64 noundef %2, i64 noundef %3, i64 noundef %4) local_unnamed_addr #0 {
  %6 = sext i32 %0 to i64
  %7 = getelementptr inbounds [85 x ptr], ptr @SysCache, i64 0, i64 %6
  %8 = load ptr, ptr %7, align 8
  %9 = tail call ptr @SearchCatCache(ptr noundef %8, i64 noundef %1, i64 noundef %2, i64 noundef %3, i64 noundef %4) #11
  %.not = icmp ne ptr %9, null
  br i1 %.not, label %10, label %11

10:                                               ; preds = %5
  tail call void @ReleaseCatCache(ptr noundef nonnull %9) #11
  br label %11

11:                                               ; preds = %5, %10
  ret i1 %.not
}